target datalayout = "e-m:e-p270:32:32-p271:32:32-p272:64:64-i64:64-i128:128-f80:128-n8:16:32:64-S128"
target triple = "x86_64-pc-linux-gnu"

%struct.tMPI_Atomic = type { i32, [60 x i8] }
%struct.tMPI_Thread_mutex_t = type { %struct.tMPI_Atomic, ptr }
%struct.tmpi_global = type { ptr, i32, i32, %struct.tMPI_Spinlock, %struct.tMPI_Thread_mutex_t, %struct.tMPI_Thread_barrier_t, %struct.tMPI_Thread_mutex_t, %struct.timeval }
%struct.tMPI_Spinlock = type { i32, [60 x i8] }
%struct.tMPI_Thread_barrier_t = type { %struct.tMPI_Atomic, ptr, i32, i32, i32 }
%struct.timeval = type { i64, i64 }

@tmpi_global = global ptr null, align 8

; Function Attrs: mustprogress nounwind uwtable
define noundef double @_Z10tMPI_Wtimev() #6 {
  %1 = alloca double, align 8
  %2 = alloca %struct.timeval, align 8
  %3 = alloca i64, align 8
  %4 = alloca i32, align 4
  call void @llvm.lifetime.start.p0(i64 8, ptr %1) #11
  store double 0.000000e+00, ptr %1, align 8, !tbaa !101
  call void @llvm.lifetime.start.p0(i64 16, ptr %2) #11
  call void @llvm.lifetime.start.p0(i64 8, ptr %3) #11
  call void @llvm.lifetime.start.p0(i64 4, ptr %4) #11
  %5 = call i32 @gettimeofday(ptr noundef %2, ptr noundef null) #11
  %6 = getelementptr inbounds nuw %struct.timeval, ptr %2, i32 0, i32 0
  %7 = load i64, ptr %6, align 8, !tbaa !103
  %8 = load ptr, ptr @tmpi_global, align 8, !tbaa !63
  %9 = getelementptr inbounds nuw %struct.tmpi_global, ptr %8, i32 0, i32 7
  %10 = getelementptr inbounds nuw %struct.timeval, ptr %9, i32 0, i32 0
  %11 = load i64, ptr %10, align 8, !tbaa !104
  %12 = sub nsw i64 %7, %11
  store i64 %12, ptr %3, align 8, !tbaa !99
  %13 = getelementptr inbounds nuw %struct.timeval, ptr %2, i32 0, i32 1
  %14 = load i64, ptr %13, align 8, !tbaa !105
  %15 = load ptr, ptr @tmpi_global, align 8, !tbaa !63
  %16 = getelementptr inbounds nuw %struct.tmpi_global, ptr %15, i32 0, i32 7
  %17 = getelementptr inbounds nuw %struct.timeval, ptr %16, i32 0, i32 1
  %18 = load i64, ptr %17, align 8, !tbaa !106
  %19 = sub nsw i64 %14, %18
  %20 = trunc i64 %19 to i32
  store i32 %20, ptr %4, align 4, !tbaa !30
  %21 = load i64, ptr %3, align 8, !tbaa !99
  %22 = sitofp i64 %21 to double
  %23 = load i32, ptr %4, align 4, !tbaa !30
  %24 = sitofp i32 %23 to double
  %25 = call double @llvm.fmuladd.f64(double 0x3EB0C6F7A0B5ED8D, double %24, double %22)
  store double %25, ptr %1, align 8, !tbaa !101
  call void @llvm.lifetime.end.p0(i64 4, ptr %4) #11
  call void @llvm.lifetime.end.p0(i64 8, ptr %3) #11
  call void @llvm.lifetime.end.p0(i64 16, ptr %2) #11
  %26 = load double, ptr %1, align 8, !tbaa !101
  call void @llvm.lifetime.end.p0(i64 8, ptr %1) #11
  ret double %26
}