; Function Attrs: mustprogress nofree nounwind uwtable
define noundef double @_Z10tMPI_Wtimev() local_unnamed_addr #11 {
  %1 = alloca %struct.timeval, align 8
  call void @llvm.lifetime.start.p0(i64 16, ptr nonnull %1) #18
  %2 = call i32 @gettimeofday(ptr noundef nonnull %1, ptr noundef null) #18
  %3 = load i64, ptr %1, align 8, !tbaa !91
  %4 = load ptr, ptr @tmpi_global, align 8, !tbaa !53
  %5 = getelementptr inbounds nuw i8, ptr %4, i64 312
  %6 = load i64, ptr %5, align 8, !tbaa !92
  %7 = sub nsw i64 %3, %6
  %8 = getelementptr inbounds nuw i8, ptr %1, i64 8
  %9 = load i64, ptr %8, align 8, !tbaa !93
  %10 = getelementptr inbounds nuw i8, ptr %4, i64 320
  %11 = load i64, ptr %10, align 8, !tbaa !94
  %12 = sub nsw i64 %9, %11
  %13 = trunc i64 %12 to i32
  %14 = sitofp i64 %7 to double
  %15 = sitofp i32 %13 to double
  %16 = tail call double @llvm.fmuladd.f64(double %15, double 0x3EB0C6F7A0B5ED8D, double %14)
  call void @llvm.lifetime.end.p0(i64 16, ptr nonnull %1) #18
  ret double %16
}